target datalayout = "e-m:e-p270:32:32-p271:32:32-p272:64:64-i64:64-i128:128-f80:128-n8:16:32:64-S128"
target triple = "x86_64-pc-linux-gnu"

%struct.Cleaner = type <{ ptr, ptr, %struct.DyndepLoader, %"class.std::set", %"class.std::set.0", i32, [4 x i8], ptr, i32, [4 x i8] }>
%struct.DyndepLoader = type { ptr, ptr, %struct.OptionalExplanations }
%struct.OptionalExplanations = type { ptr }
%"class.std::set" = type { %"class.std::_Rb_tree" }
%"class.std::_Rb_tree" = type { %"struct.std::_Rb_tree<std::__cxx11::basic_string<char>, std::__cxx11::basic_string<char>, std::_Identity<std::__cxx11::basic_string<char>>, std::less<std::__cxx11::basic_string<char>>>::_Rb_tree_impl" }
%"struct.std::_Rb_tree<std::__cxx11::basic_string<char>, std::__cxx11::basic_string<char>, std::_Identity<std::__cxx11::basic_string<char>>, std::less<std::__cxx11::basic_string<char>>>::_Rb_tree_impl" = type { [8 x i8], %"struct.std::_Rb_tree_header" }
%"struct.std::_Rb_tree_header" = type { %"struct.std::_Rb_tree_node_base", i64 }
%"struct.std::_Rb_tree_node_base" = type { i32, ptr, ptr, ptr }
%"class.std::set.0" = type { %"class.std::_Rb_tree.1" }
%"class.std::_Rb_tree.1" = type { %"struct.std::_Rb_tree<Node *, Node *, std::_Identity<Node *>, std::less<Node *>>::_Rb_tree_impl" }
%"struct.std::_Rb_tree<Node *, Node *, std::_Identity<Node *>, std::less<Node *>>::_Rb_tree_impl" = type { [8 x i8], %"struct.std::_Rb_tree_header" }
%struct.BuildConfig = type <{ i32, i8, [3 x i8], i32, i32, double, [8 x i8] }>

@.str.5 = private unnamed_addr constant [11 x i8] c"%d files.\0A\00", align 1

; Function Attrs: mustprogress uwtable
define dso_local void @_ZN7Cleaner11PrintFooterEv(ptr noundef nonnull align 8 dereferenceable(156) %0) #0 align 2 {
  %2 = alloca ptr, align 8
  store ptr %0, ptr %2, align 8, !tbaa !4
  %3 = load ptr, ptr %2, align 8
  %4 = getelementptr inbounds nuw %struct.Cleaner, ptr %3, i32 0, i32 1
  %5 = load ptr, ptr %4, align 8, !tbaa !53
  %6 = getelementptr inbounds nuw %struct.BuildConfig, ptr %5, i32 0, i32 0
  %7 = load i32, ptr %6, align 8, !tbaa !54
  %8 = icmp eq i32 %7, 0
  br i1 %8, label %9, label %10

9:                                                ; preds = %1
  br label %14

10:                                               ; preds = %1
  %11 = getelementptr inbounds nuw %struct.Cleaner, ptr %3, i32 0, i32 5
  %12 = load i32, ptr %11, align 8, !tbaa !36
  %13 = call i32 (ptr, ...) @printf(ptr noundef @.str.5, i32 noundef %12)
  br label %14

14:                                               ; preds = %10, %9
  ret void
}