; Function Attrs: mustprogress nofree nounwind uwtable
define dso_local void @_ZN7Cleaner11PrintFooterEv(ptr noundef nonnull readonly align 8 captures(none) dereferenceable(156) %0) local_unnamed_addr #4 align 2 {
  %2 = getelementptr inbounds nuw i8, ptr %0, i64 8
  %3 = load ptr, ptr %2, align 8, !tbaa !52
  %4 = load i32, ptr %3, align 8, !tbaa !53
  %5 = icmp eq i32 %4, 0
  br i1 %5, label %10, label %6

6:                                                ; preds = %1
  %7 = getelementptr inbounds nuw i8, ptr %0, i64 136
  %8 = load i32, ptr %7, align 8, !tbaa !40
  %9 = tail call i32 (ptr, ...) @printf(ptr noundef nonnull dereferenceable(1) @.str.5, i32 noundef %8)
  br label %10

10:                                               ; preds = %1, %6
  ret void
}